; ModuleID = 'source-C-CXX/51/128.c'
source_filename = "source-C-CXX/51/128.c"
target datalayout = "e-m:e-p270:32:32-p271:32:32-p272:64:64-i64:64-f80:128-n8:16:32:64-S128"
target triple = "x86_64-pc-linux-gnu"

@.str = private unnamed_addr constant [6 x i8] c"%d %d\00", align 1
@.str.1 = private unnamed_addr constant [3 x i8] c"%d\00", align 1
@.str.2 = private unnamed_addr constant [4 x i8] c"%d \00", align 1
@.str.3 = private unnamed_addr constant [4 x i8] c"%d\0A\00", align 1

; Function Attrs: nounwind sspstrong uwtable
define dso_local i32 @main() local_unnamed_addr #0 {
  %1 = alloca [20 x i32], align 16
  %2 = bitcast [20 x i32]* %1 to i8*
  %3 = alloca i32, align 4
  %4 = alloca i32, align 4
  call void @llvm.lifetime.start.p0i8(i64 80, i8* nonnull %2) #7
  %5 = bitcast i32* %3 to i8*
  call void @llvm.lifetime.start.p0i8(i64 4, i8* nonnull %5) #7
  %6 = bitcast i32* %4 to i8*
  call void @llvm.lifetime.start.p0i8(i64 4, i8* nonnull %6) #7
  %7 = call i32 (i8*, ...) @__isoc99_scanf(i8* getelementptr inbounds ([6 x i8], [6 x i8]* @.str, i64 0, i64 0), i32* nonnull %3, i32* nonnull %4)
  %8 = load i32, i32* %3, align 4, !tbaa !5
  %9 = sext i32 %8 to i64
  %10 = shl nsw i64 %9, 2
  %11 = call noalias align 16 i8* @malloc(i64 %10) #7
  %12 = bitcast i8* %11 to i32*
  %13 = icmp sgt i32 %8, 0
  br i1 %13, label %14, label %22

14:                                               ; preds = %0, %14
  %15 = phi i64 [ %18, %14 ], [ 0, %0 ]
  %16 = getelementptr inbounds [20 x i32], [20 x i32]* %1, i64 0, i64 %15
  %17 = call i32 (i8*, ...) @__isoc99_scanf(i8* getelementptr inbounds ([3 x i8], [3 x i8]* @.str.1, i64 0, i64 0), i32* nonnull %16)
  %18 = add nuw nsw i64 %15, 1
  %19 = load i32, i32* %3, align 4, !tbaa !5
  %20 = sext i32 %19 to i64
  %21 = icmp slt i64 %18, %20
  br i1 %21, label %14, label %22, !llvm.loop !9

22:                                               ; preds = %14, %0
  %23 = phi i32 [ %8, %0 ], [ %19, %14 ]
  %24 = load i32, i32* %4, align 4, !tbaa !5
  %25 = sub i32 %23, %24
  %26 = icmp sgt i32 %24, 0
  br i1 %26, label %27, label %40

27:                                               ; preds = %22
  %28 = sext i32 %25 to i64
  %29 = getelementptr [20 x i32], [20 x i32]* %1, i64 0, i64 %28
  %30 = bitcast i32* %29 to i8*
  %31 = add i32 %23, 1
  %32 = sub i32 %31, %24
  %33 = call i32 @llvm.smax.i32(i32 %23, i32 %32)
  %34 = add i32 %24, %33
  %35 = xor i32 %23, -1
  %36 = add i32 %34, %35
  %37 = zext i32 %36 to i64
  %38 = shl nuw nsw i64 %37, 2
  %39 = add nuw nsw i64 %38, 4
  call void @llvm.memcpy.p0i8.p0i8.i64(i8* noundef nonnull align 16 dereferenceable(1) %11, i8* noundef nonnull align 4 dereferenceable(1) %30, i64 %39, i1 false)
  br label %40

40:                                               ; preds = %27, %22
  %41 = icmp sgt i32 %25, 0
  br i1 %41, label %42, label %51

42:                                               ; preds = %40
  %43 = sext i32 %24 to i64
  %44 = shl nsw i64 %43, 2
  %45 = getelementptr i8, i8* %11, i64 %44
  %46 = xor i32 %24, -1
  %47 = add i32 %23, %46
  %48 = zext i32 %47 to i64
  %49 = shl nuw nsw i64 %48, 2
  %50 = add nuw nsw i64 %49, 4
  call void @llvm.memcpy.p0i8.p0i8.i64(i8* noundef nonnull align 4 dereferenceable(1) %45, i8* noundef nonnull align 16 %2, i64 %50, i1 false)
  br label %51

51:                                               ; preds = %42, %40
  %52 = icmp sgt i32 %23, 0
  br i1 %52, label %53, label %67

53:                                               ; preds = %51, %53
  %54 = phi i64 [ %63, %53 ], [ 0, %51 ]
  %55 = phi i32 [ %64, %53 ], [ %23, %51 ]
  %56 = add nsw i32 %55, -1
  %57 = zext i32 %56 to i64
  %58 = icmp eq i64 %54, %57
  %59 = getelementptr inbounds i32, i32* %12, i64 %54
  %60 = load i32, i32* %59, align 4, !tbaa !5
  %61 = select i1 %58, i8* getelementptr inbounds ([4 x i8], [4 x i8]* @.str.3, i64 0, i64 0), i8* getelementptr inbounds ([4 x i8], [4 x i8]* @.str.2, i64 0, i64 0)
  %62 = call i32 (i8*, ...) @printf(i8* nonnull dereferenceable(1) %61, i32 %60)
  %63 = add nuw nsw i64 %54, 1
  %64 = load i32, i32* %3, align 4, !tbaa !5
  %65 = sext i32 %64 to i64
  %66 = icmp slt i64 %63, %65
  br i1 %66, label %53, label %67, !llvm.loop !11

67:                                               ; preds = %53, %51
  call void @free(i8* %11) #7
  call void @llvm.lifetime.end.p0i8(i64 4, i8* nonnull %6) #7
  call void @llvm.lifetime.end.p0i8(i64 4, i8* nonnull %5) #7
  call void @llvm.lifetime.end.p0i8(i64 80, i8* nonnull %2) #7
  ret i32 0
}

; Function Attrs: argmemonly mustprogress nofree nosync nounwind willreturn
declare void @llvm.lifetime.start.p0i8(i64 immarg, i8* nocapture) #1

; Function Attrs: nofree nounwind
declare noundef i32 @__isoc99_scanf(i8* nocapture noundef readonly, ...) local_unnamed_addr #2

; Function Attrs: inaccessiblememonly mustprogress nofree nounwind willreturn
declare noalias noundef align 16 i8* @malloc(i64 noundef) local_unnamed_addr #3

; Function Attrs: nofree nounwind
declare noundef i32 @printf(i8* nocapture noundef readonly, ...) local_unnamed_addr #2

; Function Attrs: inaccessiblemem_or_argmemonly mustprogress nounwind willreturn
declare void @free(i8* nocapture noundef) local_unnamed_addr #4

; Function Attrs: argmemonly mustprogress nofree nosync nounwind willreturn
declare void @llvm.lifetime.end.p0i8(i64 immarg, i8* nocapture) #1

; Function Attrs: nofree nosync nounwind readnone speculatable willreturn
declare i32 @llvm.smax.i32(i32, i32) #5

; Function Attrs: argmemonly nofree nounwind willreturn
declare void @llvm.memcpy.p0i8.p0i8.i64(i8* noalias nocapture writeonly, i8* noalias nocapture readonly, i64, i1 immarg) #6


!llvm.module.flags = !{!0, !1, !2, !3}
!llvm.ident = !{!4}

!0 = !{i32 1, !"wchar_size", i32 4}
!1 = !{i32 7, !"PIC Level", i32 2}
!2 = !{i32 7, !"PIE Level", i32 2}
!3 = !{i32 7, !"uwtable", i32 1}
!4 = !{!"clang version 13.0.0"}
!5 = !{!6, !6, i64 0}
!6 = !{!"int", !7, i64 0}
!7 = !{!"omnipotent char", !8, i64 0}
!8 = !{!"Simple C/C++ TBAA"}
!9 = distinct !{!9, !10}
!10 = !{!"llvm.loop.mustprogress"}
!11 = distinct !{!11, !10}
